target datalayout = "e-m:e-p270:32:32-p271:32:32-p272:64:64-i64:64-i128:128-f80:128-n8:16:32:64-S128"
target triple = "x86_64-pc-linux-gnu"

%struct.ARKodeMemRec = type { ptr, double, ptr, i32, i32, double, double, ptr, i32, double, ptr, i32, i32, ptr, ptr, i32, ptr, ptr, i32, ptr, ptr, ptr, ptr, ptr, ptr, ptr, ptr, ptr, ptr, ptr, ptr, ptr, ptr, ptr, i32, ptr, ptr, i32, ptr, i32, ptr, ptr, ptr, ptr, ptr, ptr, ptr, ptr, ptr, ptr, ptr, ptr, ptr, ptr, ptr, ptr, ptr, ptr, ptr, ptr, ptr, ptr, ptr, ptr, ptr, ptr, i32, ptr, ptr, ptr, ptr, ptr, ptr, ptr, i32, ptr, ptr, ptr, i32, ptr, ptr, ptr, ptr, ptr, ptr, ptr, i32, i32, i32, i32, double, double, double, double, double, double, double, double, double, double, i32, ptr, i64, i32, i32, i32, i32, i64, i64, i32, i64, i64, i64, i64, i64, i64, i64, double, double, double, double, double, i32, double, double, i32, i32, i32, i32, i32, i32, i32, i32, ptr, i32, ptr, ptr, ptr, ptr, i32, i32, i32 }
%struct.ARKodeMRIStepMemRec = type { ptr, ptr, i32, i32, i32, i32, i32, ptr, ptr, i32, i32, i32, ptr, i32, i32, i32, i32, i32, ptr, ptr, ptr, ptr, ptr, ptr, ptr, i32, ptr, i32, ptr, double, double, double, double, i32, double, double, double, double, double, double, i32, i64, i32, i32, i32, ptr, ptr, ptr, ptr, ptr, ptr, ptr, ptr, ptr, double, double, double, i64, i64, i64, i64, i64, i64, i32, i32, i32, double, double, ptr, i32, ptr, ptr }

; Function Attrs: nounwind uwtable
define i32 @mriStep_StageDIRKNoFast(ptr noundef %0, ptr noundef %1, i32 noundef %2, ptr noundef %3) #0 {
  %5 = alloca i32, align 4
  %6 = alloca ptr, align 8
  %7 = alloca ptr, align 8
  %8 = alloca i32, align 4
  %9 = alloca ptr, align 8
  %10 = alloca i32, align 4
  %11 = alloca i32, align 4
  store ptr %0, ptr %6, align 8, !tbaa !17
  store ptr %1, ptr %7, align 8, !tbaa !19
  store i32 %2, ptr %8, align 4, !tbaa !15
  store ptr %3, ptr %9, align 8, !tbaa !128
  call void @llvm.lifetime.start.p0(i64 4, ptr %10) #8
  %12 = load i32, ptr %8, align 4, !tbaa !15
  %13 = load ptr, ptr %7, align 8, !tbaa !19
  %14 = getelementptr inbounds nuw %struct.ARKodeMRIStepMemRec, ptr %13, i32 0, i32 15
  %15 = load i32, ptr %14, align 8, !tbaa !142
  %16 = icmp eq i32 %12, %15
  br i1 %16, label %17, label %20

17:                                               ; preds = %4
  %18 = load i32, ptr %8, align 4, !tbaa !15
  %19 = sub nsw i32 %18, 1
  br label %22

20:                                               ; preds = %4
  %21 = load i32, ptr %8, align 4, !tbaa !15
  br label %22

22:                                               ; preds = %20, %17
  %23 = phi i32 [ %19, %17 ], [ %21, %20 ]
  %24 = load ptr, ptr %7, align 8, !tbaa !19
  %25 = getelementptr inbounds nuw %struct.ARKodeMRIStepMemRec, ptr %24, i32 0, i32 25
  store i32 %23, ptr %25, align 8, !tbaa !203
  %26 = load ptr, ptr %6, align 8, !tbaa !17
  %27 = load ptr, ptr %7, align 8, !tbaa !19
  %28 = getelementptr inbounds nuw %struct.ARKodeMRIStepMemRec, ptr %27, i32 0, i32 25
  %29 = load i32, ptr %28, align 8, !tbaa !203
  %30 = load ptr, ptr %7, align 8, !tbaa !19
  %31 = getelementptr inbounds nuw %struct.ARKodeMRIStepMemRec, ptr %30, i32 0, i32 23
  %32 = load ptr, ptr %31, align 8, !tbaa !200
  %33 = call i32 @mriStep_Predict(ptr noundef %26, i32 noundef %29, ptr noundef %32)
  store i32 %33, ptr %10, align 4, !tbaa !15
  %34 = load i32, ptr %10, align 4, !tbaa !15
  %35 = icmp ne i32 %34, 0
  br i1 %35, label %36, label %38

36:                                               ; preds = %22
  %37 = load i32, ptr %10, align 4, !tbaa !15
  store i32 %37, ptr %5, align 4
  store i32 1, ptr %11, align 4
  br label %102

38:                                               ; preds = %22
  %39 = load ptr, ptr %7, align 8, !tbaa !19
  %40 = getelementptr inbounds nuw %struct.ARKodeMRIStepMemRec, ptr %39, i32 0, i32 45
  %41 = load ptr, ptr %40, align 8, !tbaa !237
  %42 = icmp ne ptr %41, null
  br i1 %42, label %43, label %65

43:                                               ; preds = %38
  %44 = load ptr, ptr %7, align 8, !tbaa !19
  %45 = getelementptr inbounds nuw %struct.ARKodeMRIStepMemRec, ptr %44, i32 0, i32 45
  %46 = load ptr, ptr %45, align 8, !tbaa !237
  %47 = load ptr, ptr %6, align 8, !tbaa !17
  %48 = getelementptr inbounds nuw %struct.ARKodeMemRec, ptr %47, i32 0, i32 98
  %49 = load double, ptr %48, align 8, !tbaa !170
  %50 = load ptr, ptr %7, align 8, !tbaa !19
  %51 = getelementptr inbounds nuw %struct.ARKodeMRIStepMemRec, ptr %50, i32 0, i32 23
  %52 = load ptr, ptr %51, align 8, !tbaa !200
  %53 = load ptr, ptr %6, align 8, !tbaa !17
  %54 = getelementptr inbounds nuw %struct.ARKodeMemRec, ptr %53, i32 0, i32 2
  %55 = load ptr, ptr %54, align 8, !tbaa !179
  %56 = call i32 %46(double noundef %49, ptr noundef %52, ptr noundef %55)
  store i32 %56, ptr %10, align 4, !tbaa !15
  %57 = load i32, ptr %10, align 4, !tbaa !15
  %58 = icmp slt i32 %57, 0
  br i1 %58, label %59, label %60

59:                                               ; preds = %43
  store i32 -39, ptr %5, align 4
  store i32 1, ptr %11, align 4
  br label %102

60:                                               ; preds = %43
  %61 = load i32, ptr %10, align 4, !tbaa !15
  %62 = icmp sgt i32 %61, 0
  br i1 %62, label %63, label %64

63:                                               ; preds = %60
  store i32 5, ptr %5, align 4
  store i32 1, ptr %11, align 4
  br label %102

64:                                               ; preds = %60
  br label %65

65:                                               ; preds = %64, %38
  %66 = load ptr, ptr %7, align 8, !tbaa !19
  %67 = getelementptr inbounds nuw %struct.ARKodeMRIStepMemRec, ptr %66, i32 0, i32 12
  %68 = load ptr, ptr %67, align 8, !tbaa !137
  %69 = load i32, ptr %8, align 4, !tbaa !15
  %70 = load ptr, ptr %7, align 8, !tbaa !19
  %71 = getelementptr inbounds nuw %struct.ARKodeMRIStepMemRec, ptr %70, i32 0, i32 18
  %72 = load ptr, ptr %71, align 8, !tbaa !152
  %73 = load ptr, ptr %7, align 8, !tbaa !19
  %74 = getelementptr inbounds nuw %struct.ARKodeMRIStepMemRec, ptr %73, i32 0, i32 20
  %75 = load ptr, ptr %74, align 8, !tbaa !154
  %76 = load ptr, ptr %7, align 8, !tbaa !19
  %77 = getelementptr inbounds nuw %struct.ARKodeMRIStepMemRec, ptr %76, i32 0, i32 21
  %78 = load ptr, ptr %77, align 8, !tbaa !155
  %79 = call i32 @mriStep_RKCoeffs(ptr noundef %68, i32 noundef %69, ptr noundef %72, ptr noundef %75, ptr noundef %78)
  store i32 %79, ptr %10, align 4, !tbaa !15
  %80 = load i32, ptr %10, align 4, !tbaa !15
  %81 = icmp ne i32 %80, 0
  br i1 %81, label %82, label %84

82:                                               ; preds = %65
  %83 = load i32, ptr %10, align 4, !tbaa !15
  store i32 %83, ptr %5, align 4
  store i32 1, ptr %11, align 4
  br label %102

84:                                               ; preds = %65
  %85 = load ptr, ptr %6, align 8, !tbaa !17
  %86 = call i32 @mriStep_StageSetup(ptr noundef %85)
  store i32 %86, ptr %10, align 4, !tbaa !15
  %87 = load i32, ptr %10, align 4, !tbaa !15
  %88 = icmp ne i32 %87, 0
  br i1 %88, label %89, label %91

89:                                               ; preds = %84
  %90 = load i32, ptr %10, align 4, !tbaa !15
  store i32 %90, ptr %5, align 4
  store i32 1, ptr %11, align 4
  br label %102

91:                                               ; preds = %84
  %92 = load ptr, ptr %6, align 8, !tbaa !17
  %93 = load ptr, ptr %9, align 8, !tbaa !128
  %94 = load i32, ptr %93, align 4, !tbaa !15
  %95 = call i32 @mriStep_Nls(ptr noundef %92, i32 noundef %94)
  %96 = load ptr, ptr %9, align 8, !tbaa !128
  store i32 %95, ptr %96, align 4, !tbaa !15
  %97 = load ptr, ptr %9, align 8, !tbaa !128
  %98 = load i32, ptr %97, align 4, !tbaa !15
  %99 = icmp ne i32 %98, 0
  br i1 %99, label %100, label %101

100:                                              ; preds = %91
  store i32 5, ptr %5, align 4
  store i32 1, ptr %11, align 4
  br label %102

101:                                              ; preds = %91
  store i32 0, ptr %5, align 4
  store i32 1, ptr %11, align 4
  br label %102

102:                                              ; preds = %101, %100, %89, %82, %63, %59, %36
  call void @llvm.lifetime.end.p0(i64 4, ptr %10) #8
  %103 = load i32, ptr %5, align 4
  ret i32 %103
}