; Function Attrs: nounwind uwtable
define i32 @mriStep_StageDIRKNoFast(ptr noundef %0, ptr noundef captures(none) initializes((160, 164)) %1, i32 noundef %2, ptr noundef captures(none) %3) local_unnamed_addr #0 {
  %5 = getelementptr inbounds nuw i8, ptr %1, i64 88
  %6 = load i32, ptr %5, align 8, !tbaa !131
  %7 = icmp eq i32 %2, %6
  %8 = sext i1 %7 to i32
  %9 = add nsw i32 %2, %8
  %10 = getelementptr inbounds nuw i8, ptr %1, i64 160
  store i32 %9, ptr %10, align 8, !tbaa !197
  %11 = getelementptr inbounds nuw i8, ptr %1, i64 144
  %12 = load ptr, ptr %11, align 8, !tbaa !195
  %13 = tail call i32 @mriStep_Predict(ptr noundef %0, i32 noundef %9, ptr noundef %12)
  %.not = icmp eq i32 %13, 0
  br i1 %.not, label %14, label %41

14:                                               ; preds = %4
  %15 = getelementptr inbounds nuw i8, ptr %1, i64 312
  %16 = load ptr, ptr %15, align 8, !tbaa !224
  %.not36 = icmp eq ptr %16, null
  br i1 %.not36, label %26, label %17

17:                                               ; preds = %14
  %18 = getelementptr inbounds nuw i8, ptr %0, i64 752
  %19 = load double, ptr %18, align 8, !tbaa !159
  %20 = load ptr, ptr %11, align 8, !tbaa !195
  %21 = getelementptr inbounds nuw i8, ptr %0, i64 16
  %22 = load ptr, ptr %21, align 8, !tbaa !169
  %23 = tail call i32 %16(double noundef %19, ptr noundef %20, ptr noundef %22) #14
  %24 = icmp slt i32 %23, 0
  br i1 %24, label %41, label %25

25:                                               ; preds = %17
  %.not37 = icmp eq i32 %23, 0
  br i1 %.not37, label %26, label %41

26:                                               ; preds = %25, %14
  %27 = getelementptr inbounds nuw i8, ptr %1, i64 72
  %28 = load ptr, ptr %27, align 8, !tbaa !125
  %29 = getelementptr inbounds nuw i8, ptr %1, i64 104
  %30 = load ptr, ptr %29, align 8, !tbaa !141
  %31 = getelementptr inbounds nuw i8, ptr %1, i64 120
  %32 = load ptr, ptr %31, align 8, !tbaa !143
  %33 = getelementptr inbounds nuw i8, ptr %1, i64 128
  %34 = load ptr, ptr %33, align 8, !tbaa !144
  %35 = tail call i32 @mriStep_RKCoeffs(ptr noundef %28, i32 noundef %2, ptr noundef %30, ptr noundef %32, ptr noundef %34)
  %.not38 = icmp eq i32 %35, 0
  br i1 %.not38, label %36, label %41

36:                                               ; preds = %26
  %37 = tail call i32 @mriStep_StageSetup(ptr noundef %0)
  %.not39 = icmp eq i32 %37, 0
  br i1 %.not39, label %38, label %41

38:                                               ; preds = %36
  %39 = load i32, ptr %3, align 4, !tbaa !119
  %40 = tail call i32 @mriStep_Nls(ptr noundef %0, i32 noundef %39) #14
  store i32 %40, ptr %3, align 4, !tbaa !119
  %.not40 = icmp eq i32 %40, 0
  %. = select i1 %.not40, i32 0, i32 5
  br label %41

41:                                               ; preds = %38, %36, %26, %25, %17, %4
  %.0 = phi i32 [ %13, %4 ], [ -39, %17 ], [ 5, %25 ], [ %35, %26 ], [ %37, %36 ], [ %., %38 ]
  ret i32 %.0
}